target datalayout = "e-m:e-p270:32:32-p271:32:32-p272:64:64-i64:64-i128:128-f80:128-n8:16:32:64-S128"
target triple = "x86_64-pc-linux-gnu"

%struct.IpvideoContext = type { ptr, %struct.HpelDSPContext, ptr, ptr, ptr, ptr, ptr, i32, ptr, i32, i32, %struct.GetByteContext, %struct.GetByteContext, ptr, i32, i32, i32, [256 x i32] }
%struct.HpelDSPContext = type { [4 x [4 x ptr]], [4 x [4 x ptr]], [4 x [4 x ptr]], [4 x ptr] }
%struct.GetByteContext = type { ptr, ptr, ptr }

; Function Attrs: alwaysinline nounwind uwtable
define internal i32 @bytestream_get_byte(ptr noundef %0) #4 {
  %2 = alloca ptr, align 8
  store ptr %0, ptr %2, align 8, !tbaa !94
  %3 = load ptr, ptr %2, align 8, !tbaa !94
  %4 = load ptr, ptr %3, align 8, !tbaa !59
  %5 = getelementptr inbounds i8, ptr %4, i64 1
  store ptr %5, ptr %3, align 8, !tbaa !59
  %6 = load ptr, ptr %2, align 8, !tbaa !94
  %7 = load ptr, ptr %6, align 8, !tbaa !59
  %8 = getelementptr inbounds i8, ptr %7, i64 -1
  %9 = getelementptr inbounds i8, ptr %8, i64 0
  %10 = load i8, ptr %9, align 1, !tbaa !62
  %11 = zext i8 %10 to i32
  ret i32 %11
}

; Function Attrs: alwaysinline nounwind uwtable
define internal i32 @bytestream2_get_byteu(ptr noundef %0) #4 {
  %2 = alloca ptr, align 8
  store ptr %0, ptr %2, align 8, !tbaa !67
  %3 = load ptr, ptr %2, align 8, !tbaa !67
  %4 = getelementptr inbounds nuw %struct.GetByteContext, ptr %3, i32 0, i32 0
  %5 = call i32 @bytestream_get_byte(ptr noundef %4)
  ret i32 %5
}

; Function Attrs: alwaysinline nounwind uwtable
define internal i32 @bytestream2_get_byte(ptr noundef %0) #4 {
  %2 = alloca i32, align 4
  %3 = alloca ptr, align 8
  store ptr %0, ptr %3, align 8, !tbaa !67
  %4 = load ptr, ptr %3, align 8, !tbaa !67
  %5 = getelementptr inbounds nuw %struct.GetByteContext, ptr %4, i32 0, i32 1
  %6 = load ptr, ptr %5, align 8, !tbaa !71
  %7 = load ptr, ptr %3, align 8, !tbaa !67
  %8 = getelementptr inbounds nuw %struct.GetByteContext, ptr %7, i32 0, i32 0
  %9 = load ptr, ptr %8, align 8, !tbaa !69
  %10 = ptrtoint ptr %6 to i64
  %11 = ptrtoint ptr %9 to i64
  %12 = sub i64 %10, %11
  %13 = icmp slt i64 %12, 1
  br i1 %13, label %14, label %20

14:                                               ; preds = %1
  %15 = load ptr, ptr %3, align 8, !tbaa !67
  %16 = getelementptr inbounds nuw %struct.GetByteContext, ptr %15, i32 0, i32 1
  %17 = load ptr, ptr %16, align 8, !tbaa !71
  %18 = load ptr, ptr %3, align 8, !tbaa !67
  %19 = getelementptr inbounds nuw %struct.GetByteContext, ptr %18, i32 0, i32 0
  store ptr %17, ptr %19, align 8, !tbaa !69
  store i32 0, ptr %2, align 4
  br label %23

20:                                               ; preds = %1
  %21 = load ptr, ptr %3, align 8, !tbaa !67
  %22 = call i32 @bytestream2_get_byteu(ptr noundef %21)
  store i32 %22, ptr %2, align 4
  br label %23

23:                                               ; preds = %20, %14
  %24 = load i32, ptr %2, align 4
  ret i32 %24
}

; Function Attrs: nounwind uwtable
define internal i32 @ipvideo_decode_block_opcode_0x3(ptr noundef %0, ptr noundef %1) #1 {
  %3 = alloca ptr, align 8
  %4 = alloca ptr, align 8
  %5 = alloca i8, align 1
  %6 = alloca i32, align 4
  %7 = alloca i32, align 4
  store ptr %0, ptr %3, align 8, !tbaa !29
  store ptr %1, ptr %4, align 8, !tbaa !53
  call void @llvm.lifetime.start.p0(i64 1, ptr %5) #11
  call void @llvm.lifetime.start.p0(i64 4, ptr %6) #11
  call void @llvm.lifetime.start.p0(i64 4, ptr %7) #11
  %8 = load ptr, ptr %3, align 8, !tbaa !29
  %9 = getelementptr inbounds nuw %struct.IpvideoContext, ptr %8, i32 0, i32 10
  %10 = load i32, ptr %9, align 4, !tbaa !37
  %11 = icmp ne i32 %10, 0
  br i1 %11, label %17, label %12

12:                                               ; preds = %2
  %13 = load ptr, ptr %3, align 8, !tbaa !29
  %14 = getelementptr inbounds nuw %struct.IpvideoContext, ptr %13, i32 0, i32 11
  %15 = call i32 @bytestream2_get_byte(ptr noundef %14)
  %16 = trunc i32 %15 to i8
  store i8 %16, ptr %5, align 1, !tbaa !62
  br label %22

17:                                               ; preds = %2
  %18 = load ptr, ptr %3, align 8, !tbaa !29
  %19 = getelementptr inbounds nuw %struct.IpvideoContext, ptr %18, i32 0, i32 12
  %20 = call i32 @bytestream2_get_byte(ptr noundef %19)
  %21 = trunc i32 %20 to i8
  store i8 %21, ptr %5, align 1, !tbaa !62
  br label %22

22:                                               ; preds = %17, %12
  %23 = load i8, ptr %5, align 1, !tbaa !62
  %24 = zext i8 %23 to i32
  %25 = icmp slt i32 %24, 56
  br i1 %25, label %26, label %36

26:                                               ; preds = %22
  %27 = load i8, ptr %5, align 1, !tbaa !62
  %28 = zext i8 %27 to i32
  %29 = srem i32 %28, 7
  %30 = add nsw i32 8, %29
  %31 = sub nsw i32 0, %30
  store i32 %31, ptr %6, align 4, !tbaa !61
  %32 = load i8, ptr %5, align 1, !tbaa !62
  %33 = zext i8 %32 to i32
  %34 = sdiv i32 %33, 7
  %35 = sub nsw i32 0, %34
  store i32 %35, ptr %7, align 4, !tbaa !61
  br label %49

36:                                               ; preds = %22
  %37 = load i8, ptr %5, align 1, !tbaa !62
  %38 = zext i8 %37 to i32
  %39 = sub nsw i32 %38, 56
  %40 = srem i32 %39, 29
  %41 = add nsw i32 -14, %40
  %42 = sub nsw i32 0, %41
  store i32 %42, ptr %6, align 4, !tbaa !61
  %43 = load i8, ptr %5, align 1, !tbaa !62
  %44 = zext i8 %43 to i32
  %45 = sub nsw i32 %44, 56
  %46 = sdiv i32 %45, 29
  %47 = add nsw i32 8, %46
  %48 = sub nsw i32 0, %47
  store i32 %48, ptr %7, align 4, !tbaa !61
  br label %49

49:                                               ; preds = %36, %26
  br label %50

50:                                               ; preds = %49
  br label %51

51:                                               ; preds = %50
  br label %52

52:                                               ; preds = %51
  %53 = load ptr, ptr %3, align 8, !tbaa !29
  %54 = load ptr, ptr %4, align 8, !tbaa !53
  %55 = load ptr, ptr %4, align 8, !tbaa !53
  %56 = load i32, ptr %6, align 4, !tbaa !61
  %57 = load i32, ptr %7, align 4, !tbaa !61
  %58 = call i32 @copy_from(ptr noundef %53, ptr noundef %54, ptr noundef %55, i32 noundef %56, i32 noundef %57)
  call void @llvm.lifetime.end.p0(i64 4, ptr %7) #11
  call void @llvm.lifetime.end.p0(i64 4, ptr %6) #11
  call void @llvm.lifetime.end.p0(i64 1, ptr %5) #11
  ret i32 %58
}