; Function Attrs: nounwind uwtable
define internal range(i32 -1094995529, 1) i32 @ipvideo_decode_block_opcode_0x3(ptr noundef captures(none) %0, ptr noundef readonly captures(none) %1) #1 {
  %3 = getelementptr inbounds nuw i8, ptr %0, i64 484
  %4 = load i32, ptr %3, align 4, !tbaa !34
  %.not = icmp eq i32 %4, 0
  br i1 %.not, label %5, label %17

5:                                                ; preds = %2
  %6 = getelementptr inbounds nuw i8, ptr %0, i64 488
  %7 = getelementptr inbounds nuw i8, ptr %0, i64 496
  %8 = load ptr, ptr %7, align 8, !tbaa !60
  %9 = load ptr, ptr %6, align 8, !tbaa !58
  %10 = ptrtoint ptr %8 to i64
  %11 = ptrtoint ptr %9 to i64
  %12 = sub i64 %10, %11
  %13 = icmp slt i64 %12, 1
  br i1 %13, label %14, label %15

14:                                               ; preds = %5
  store ptr %8, ptr %6, align 8, !tbaa !58
  br label %bytestream2_get_byte.exit.thread

15:                                               ; preds = %5
  %16 = getelementptr inbounds nuw i8, ptr %9, i64 1
  store ptr %16, ptr %6, align 8, !tbaa !53
  br label %bytestream2_get_byte.exit

17:                                               ; preds = %2
  %18 = getelementptr inbounds nuw i8, ptr %0, i64 512
  %19 = getelementptr inbounds nuw i8, ptr %0, i64 520
  %20 = load ptr, ptr %19, align 8, !tbaa !60
  %21 = load ptr, ptr %18, align 8, !tbaa !58
  %22 = ptrtoint ptr %20 to i64
  %23 = ptrtoint ptr %21 to i64
  %24 = sub i64 %22, %23
  %25 = icmp slt i64 %24, 1
  br i1 %25, label %26, label %27

26:                                               ; preds = %17
  store ptr %20, ptr %18, align 8, !tbaa !58
  br label %bytestream2_get_byte.exit.thread

27:                                               ; preds = %17
  %28 = getelementptr inbounds nuw i8, ptr %21, i64 1
  store ptr %28, ptr %18, align 8, !tbaa !53
  br label %bytestream2_get_byte.exit

bytestream2_get_byte.exit:                        ; preds = %27, %15
  %.013.in.in.in = phi ptr [ %9, %15 ], [ %21, %27 ]
  %.013.in.in = load i8, ptr %.013.in.in.in, align 1, !tbaa !54
  %29 = icmp ult i8 %.013.in.in, 56
  br i1 %29, label %bytestream2_get_byte.exit.thread, label %32

bytestream2_get_byte.exit.thread:                 ; preds = %26, %14, %bytestream2_get_byte.exit
  %.013.in18 = phi i8 [ %.013.in.in, %bytestream2_get_byte.exit ], [ 0, %14 ], [ 0, %26 ]
  %30 = urem i8 %.013.in18, 7
  %.zext = zext nneg i8 %30 to i32
  %.neg = sub nuw nsw i32 -8, %.zext
  %31 = udiv i8 %.013.in18, 7
  br label %36

32:                                               ; preds = %bytestream2_get_byte.exit
  %.lhs.trunc21 = add i8 %.013.in.in, -56
  %33 = urem i8 %.lhs.trunc21, 29
  %.zext22 = zext nneg i8 %33 to i32
  %34 = sub nsw i32 14, %.zext22
  %35 = udiv i8 %.lhs.trunc21, 29
  br label %36

36:                                               ; preds = %bytestream2_get_byte.exit.thread, %32
  %.sink25 = phi i8 [ %31, %bytestream2_get_byte.exit.thread ], [ %35, %32 ]
  %.sink = phi i32 [ 0, %bytestream2_get_byte.exit.thread ], [ -8, %32 ]
  %.012 = phi i32 [ %.neg, %bytestream2_get_byte.exit.thread ], [ %34, %32 ]
  %.zext20 = zext nneg i8 %.sink25 to i32
  %37 = sub nsw i32 %.sink, %.zext20
  %38 = tail call fastcc i32 @copy_from(ptr noundef nonnull %0, ptr noundef %1, ptr noundef %1, i32 noundef %.012, i32 noundef %37)
  ret i32 %38
}